; Function Attrs: nounwind uwtable
define ptr @l_Lean_Elab_WF_GuessLex_toTerminationMeasures___boxed(ptr noundef %0, ptr noundef %1, ptr noundef %2, ptr noundef %3, ptr noundef %4, ptr noundef %5, ptr noundef %6, ptr noundef %7, ptr noundef %8, ptr noundef %9) local_unnamed_addr #1 {
  %11 = getelementptr i8, ptr %0, i64 8
  %.val.i = load i64, ptr %11, align 8, !tbaa !12
  %12 = shl i64 %.val.i, 1
  %13 = or disjoint i64 %12, 1
  %14 = inttoptr i64 %13 to ptr
  %15 = and i64 %.val.i, 9223372036854775807
  %16 = shl i64 %.val.i, 3
  %17 = add i64 %16, 24
  %18 = tail call ptr @lean_alloc_object(i64 noundef %17) #8
  store i32 1, ptr %18, align 4, !tbaa !8
  %19 = getelementptr inbounds nuw i8, ptr %18, i64 4
  %20 = load i32, ptr %19, align 4
  %21 = and i32 %20, 65535
  %22 = or disjoint i32 %21, -167772160
  store i32 %22, ptr %19, align 4
  %23 = getelementptr inbounds nuw i8, ptr %18, i64 8
  store i64 0, ptr %23, align 8, !tbaa !12
  %24 = getelementptr inbounds nuw i8, ptr %18, i64 16
  store i64 %15, ptr %24, align 8, !tbaa !12
  %25 = tail call ptr @l_Array_mapFinIdxM_map___at_Lean_Elab_WF_GuessLex_toTerminationMeasures___spec__2(ptr readonly poison, ptr noundef %1, ptr noundef %2, ptr noundef readonly %3, ptr noundef %4, ptr noundef readonly %0, ptr noundef nonnull %14, ptr noundef nonnull inttoptr (i64 1 to ptr), ptr nonnull poison, ptr noundef nonnull %18, ptr noundef %5, ptr noundef %6, ptr noundef %7, ptr noundef %8, ptr noundef %9)
  %26 = ptrtoint ptr %3 to i64
  %27 = and i64 %26, 1
  %.not = icmp eq i64 %27, 0
  br i1 %.not, label %28, label %lean_dec.exit13

28:                                               ; preds = %10
  %29 = load i32, ptr %3, align 4, !tbaa !8
  %30 = icmp sgt i32 %29, 1
  br i1 %30, label %31, label %33, !prof !11

31:                                               ; preds = %28
  %32 = add nsw i32 %29, -1
  store i32 %32, ptr %3, align 4, !tbaa !8
  br label %lean_dec.exit13

33:                                               ; preds = %28
  %.not.i = icmp eq i32 %29, 0
  br i1 %.not.i, label %lean_dec.exit13, label %34

34:                                               ; preds = %33
  tail call void @lean_dec_ref_cold(ptr noundef nonnull %3) #8
  br label %lean_dec.exit13

lean_dec.exit13:                                  ; preds = %34, %33, %31, %10
  %35 = ptrtoint ptr %0 to i64
  %36 = and i64 %35, 1
  %.not16 = icmp eq i64 %36, 0
  br i1 %.not16, label %37, label %lean_dec.exit

37:                                               ; preds = %lean_dec.exit13
  %38 = load i32, ptr %0, align 4, !tbaa !8
  %39 = icmp sgt i32 %38, 1
  br i1 %39, label %40, label %42, !prof !11

40:                                               ; preds = %37
  %41 = add nsw i32 %38, -1
  store i32 %41, ptr %0, align 4, !tbaa !8
  br label %lean_dec.exit

42:                                               ; preds = %37
  %.not.i14 = icmp eq i32 %38, 0
  br i1 %.not.i14, label %lean_dec.exit, label %43

43:                                               ; preds = %42
  tail call void @lean_dec_ref_cold(ptr noundef nonnull %0) #8
  br label %lean_dec.exit

lean_dec.exit:                                    ; preds = %43, %42, %40, %lean_dec.exit13
  ret ptr %25
}